; ModuleID = '16/881.c'
source_filename = "16/881.c"
target datalayout = "e-m:e-p270:32:32-p271:32:32-p272:64:64-i64:64-f80:128-n8:16:32:64-S128"
target triple = "x86_64-pc-linux-gnu"

@.str = private unnamed_addr constant [3 x i8] c"%d\00", align 1
@.str.1 = private unnamed_addr constant [11 x i8] c"%d%d%d%d%d\00", align 1
@.str.2 = private unnamed_addr constant [9 x i8] c"%d%d%d%d\00", align 1
@.str.3 = private unnamed_addr constant [7 x i8] c"%d%d%d\00", align 1
@.str.4 = private unnamed_addr constant [5 x i8] c"%d%d\00", align 1

; Function Attrs: noinline nounwind uwtable
define dso_local i32 @main() #0 {
  %1 = alloca i32, align 4
  %2 = alloca i32, align 4
  %3 = alloca i32, align 4
  %4 = alloca i32, align 4
  %5 = alloca i32, align 4
  %6 = alloca i32, align 4
  %7 = alloca i32, align 4
  store i32 0, i32* %1, align 4
  %8 = call i32 (i8*, ...) @__isoc99_scanf(i8* getelementptr inbounds ([3 x i8], [3 x i8]* @.str, i64 0, i64 0), i32* %2)
  %9 = load i32, i32* %2, align 4
  %10 = sdiv i32 %9, 10000
  store i32 %10, i32* %3, align 4
  %11 = load i32, i32* %2, align 4
  %12 = sdiv i32 %11, 1000
  %13 = load i32, i32* %2, align 4
  %14 = sdiv i32 %13, 10000
  %15 = mul nsw i32 %14, 10
  %16 = sub nsw i32 %12, %15
  store i32 %16, i32* %4, align 4
  %17 = load i32, i32* %2, align 4
  %18 = sdiv i32 %17, 100
  %19 = load i32, i32* %2, align 4
  %20 = sdiv i32 %19, 1000
  %21 = mul nsw i32 %20, 10
  %22 = sub nsw i32 %18, %21
  store i32 %22, i32* %5, align 4
  %23 = load i32, i32* %2, align 4
  %24 = sdiv i32 %23, 10
  %25 = load i32, i32* %2, align 4
  %26 = sdiv i32 %25, 100
  %27 = mul nsw i32 %26, 10
  %28 = sub nsw i32 %24, %27
  store i32 %28, i32* %6, align 4
  %29 = load i32, i32* %2, align 4
  %30 = load i32, i32* %2, align 4
  %31 = sdiv i32 %30, 10
  %32 = mul nsw i32 %31, 10
  %33 = sub nsw i32 %29, %32
  store i32 %33, i32* %7, align 4
  %34 = load i32, i32* %3, align 4
  %35 = icmp ne i32 %34, 0
  br i1 %35, label %36, label %43

36:                                               ; preds = %0
  %37 = load i32, i32* %7, align 4
  %38 = load i32, i32* %6, align 4
  %39 = load i32, i32* %5, align 4
  %40 = load i32, i32* %4, align 4
  %41 = load i32, i32* %3, align 4
  %42 = call i32 (i8*, ...) @printf(i8* getelementptr inbounds ([11 x i8], [11 x i8]* @.str.1, i64 0, i64 0), i32 %37, i32 %38, i32 %39, i32 %40, i32 %41)
  br label %73

43:                                               ; preds = %0
  %44 = load i32, i32* %4, align 4
  %45 = icmp ne i32 %44, 0
  br i1 %45, label %46, label %52

46:                                               ; preds = %43
  %47 = load i32, i32* %7, align 4
  %48 = load i32, i32* %6, align 4
  %49 = load i32, i32* %5, align 4
  %50 = load i32, i32* %4, align 4
  %51 = call i32 (i8*, ...) @printf(i8* getelementptr inbounds ([9 x i8], [9 x i8]* @.str.2, i64 0, i64 0), i32 %47, i32 %48, i32 %49, i32 %50)
  br label %72

52:                                               ; preds = %43
  %53 = load i32, i32* %5, align 4
  %54 = icmp ne i32 %53, 0
  br i1 %54, label %55, label %60

55:                                               ; preds = %52
  %56 = load i32, i32* %7, align 4
  %57 = load i32, i32* %6, align 4
  %58 = load i32, i32* %5, align 4
  %59 = call i32 (i8*, ...) @printf(i8* getelementptr inbounds ([7 x i8], [7 x i8]* @.str.3, i64 0, i64 0), i32 %56, i32 %57, i32 %58)
  br label %71

60:                                               ; preds = %52
  %61 = load i32, i32* %6, align 4
  %62 = icmp ne i32 %61, 0
  br i1 %62, label %63, label %67

63:                                               ; preds = %60
  %64 = load i32, i32* %7, align 4
  %65 = load i32, i32* %6, align 4
  %66 = call i32 (i8*, ...) @printf(i8* getelementptr inbounds ([5 x i8], [5 x i8]* @.str.4, i64 0, i64 0), i32 %64, i32 %65)
  br label %70

67:                                               ; preds = %60
  %68 = load i32, i32* %7, align 4
  %69 = call i32 (i8*, ...) @printf(i8* getelementptr inbounds ([3 x i8], [3 x i8]* @.str, i64 0, i64 0), i32 %68)
  br label %70

70:                                               ; preds = %67, %63
  br label %71

71:                                               ; preds = %70, %55
  br label %72

72:                                               ; preds = %71, %46
  br label %73

73:                                               ; preds = %72, %36
  ret i32 0
}

declare dso_local i32 @__isoc99_scanf(i8*, ...) #1

declare dso_local i32 @printf(i8*, ...) #1


!llvm.module.flags = !{!0}
!llvm.ident = !{!1}

!0 = !{i32 1, !"wchar_size", i32 4}
!1 = !{!"clang version 10.0.0-4ubuntu1 "}
